target datalayout = "e-m:e-p270:32:32-p271:32:32-p272:64:64-i64:64-i128:128-f80:128-n8:16:32:64-S128"
target triple = "x86_64-pc-linux-gnu"

%struct._sscop_payload_info = type { ptr }

@proto_sscop = hidden global i32 0, align 4
@q2931_handle = internal global ptr null, align 8
@data_handle = internal global ptr null, align 8
@sscf_nni_handle = internal global ptr null, align 8
@alcap_handle = internal global ptr null, align 8
@nbap_handle = internal global ptr null, align 8
@default_handle = internal global ptr null, align 8

; Function Attrs: nounwind uwtable
define internal i32 @dissect_sscop(ptr noundef %0, ptr noundef %1, ptr noundef %2, ptr noundef %3) #0 {
  %5 = alloca ptr, align 8
  %6 = alloca ptr, align 8
  %7 = alloca ptr, align 8
  %8 = alloca ptr, align 8
  %9 = alloca ptr, align 8
  %10 = alloca ptr, align 8
  store ptr %0, ptr %5, align 8
  store ptr %1, ptr %6, align 8
  store ptr %2, ptr %7, align 8
  store ptr %3, ptr %8, align 8
  %11 = call ptr @wmem_file_scope()
  %12 = load ptr, ptr %6, align 8
  %13 = load i32, ptr @proto_sscop, align 4
  %14 = call ptr @p_get_proto_data(ptr noundef %11, ptr noundef %12, i32 noundef %13, i32 noundef 0)
  store ptr %14, ptr %9, align 8
  %15 = load ptr, ptr %9, align 8
  %16 = icmp ne ptr %15, null
  br i1 %16, label %17, label %47

17:                                               ; preds = %4
  %18 = load ptr, ptr %9, align 8
  %19 = getelementptr inbounds %struct._sscop_payload_info, ptr %18, i32 0, i32 0
  %20 = load ptr, ptr %19, align 8
  store ptr %20, ptr %10, align 8
  %21 = icmp ne ptr %20, null
  br i1 %21, label %22, label %47

22:                                               ; preds = %17
  %23 = load ptr, ptr %10, align 8
  %24 = load ptr, ptr @data_handle, align 8
  %25 = icmp eq ptr %23, %24
  br i1 %25, label %42, label %26

26:                                               ; preds = %22
  %27 = load ptr, ptr %10, align 8
  %28 = load ptr, ptr @q2931_handle, align 8
  %29 = icmp eq ptr %27, %28
  br i1 %29, label %42, label %30

30:                                               ; preds = %26
  %31 = load ptr, ptr %10, align 8
  %32 = load ptr, ptr @sscf_nni_handle, align 8
  %33 = icmp eq ptr %31, %32
  br i1 %33, label %42, label %34

34:                                               ; preds = %30
  %35 = load ptr, ptr %10, align 8
  %36 = load ptr, ptr @alcap_handle, align 8
  %37 = icmp eq ptr %35, %36
  br i1 %37, label %42, label %38

38:                                               ; preds = %34
  %39 = load ptr, ptr %10, align 8
  %40 = load ptr, ptr @nbap_handle, align 8
  %41 = icmp eq ptr %39, %40
  br i1 %41, label %42, label %47

42:                                               ; preds = %38, %34, %30, %26, %22
  %43 = load ptr, ptr %5, align 8
  %44 = load ptr, ptr %6, align 8
  %45 = load ptr, ptr %7, align 8
  %46 = load ptr, ptr %10, align 8
  call void @dissect_sscop_and_payload(ptr noundef %43, ptr noundef %44, ptr noundef %45, ptr noundef %46)
  br label %52

47:                                               ; preds = %38, %17, %4
  %48 = load ptr, ptr %5, align 8
  %49 = load ptr, ptr %6, align 8
  %50 = load ptr, ptr %7, align 8
  %51 = load ptr, ptr @default_handle, align 8
  call void @dissect_sscop_and_payload(ptr noundef %48, ptr noundef %49, ptr noundef %50, ptr noundef %51)
  br label %52

52:                                               ; preds = %47, %42
  %53 = load ptr, ptr %5, align 8
  %54 = call i32 @tvb_captured_length(ptr noundef %53)
  ret i32 %54
}