; Function Attrs: nounwind uwtable
define internal i32 @dissect_sscop(ptr noundef %0, ptr noundef %1, ptr noundef %2, ptr readnone captures(none) %3) #0 {
  %5 = tail call ptr @wmem_file_scope() #2
  %6 = load i32, ptr @proto_sscop, align 4
  %7 = tail call ptr @p_get_proto_data(ptr noundef %5, ptr noundef %1, i32 noundef %6, i32 noundef 0) #2
  %.not = icmp eq ptr %7, null
  br i1 %.not, label %21, label %8

8:                                                ; preds = %4
  %9 = load ptr, ptr %7, align 8
  %.not17 = icmp eq ptr %9, null
  br i1 %.not17, label %21, label %10

10:                                               ; preds = %8
  %11 = load ptr, ptr @data_handle, align 8
  %12 = icmp eq ptr %9, %11
  %13 = load ptr, ptr @q2931_handle, align 8
  %14 = icmp eq ptr %9, %13
  %or.cond = select i1 %12, i1 true, i1 %14
  %15 = load ptr, ptr @sscf_nni_handle, align 8
  %16 = icmp eq ptr %9, %15
  %or.cond20 = select i1 %or.cond, i1 true, i1 %16
  %17 = load ptr, ptr @alcap_handle, align 8
  %18 = icmp eq ptr %9, %17
  %or.cond22 = select i1 %or.cond20, i1 true, i1 %18
  %19 = load ptr, ptr @nbap_handle, align 8
  %20 = icmp eq ptr %9, %19
  %or.cond24 = select i1 %or.cond22, i1 true, i1 %20
  br i1 %or.cond24, label %23, label %21

21:                                               ; preds = %10, %8, %4
  %22 = load ptr, ptr @default_handle, align 8
  br label %23

23:                                               ; preds = %10, %21
  %.sink = phi ptr [ %22, %21 ], [ %9, %10 ]
  tail call void @dissect_sscop_and_payload(ptr noundef %0, ptr noundef %1, ptr noundef %2, ptr noundef %.sink)
  %24 = tail call i32 @tvb_captured_length(ptr noundef %0) #2
  ret i32 %24
}